target datalayout = "e-m:e-p270:32:32-p271:32:32-p272:64:64-i64:64-i128:128-f80:128-n8:16:32:64-S128"
target triple = "x86_64-pc-linux-gnu"

%struct.ClientConnectionInfo = type { ptr, i32 }
%struct.Port = type { i32, i8, i32, %struct.SockAddr, %struct.SockAddr, ptr, ptr, i32, i32, ptr, ptr, ptr, ptr, ptr, ptr, ptr, i32, i32, i32, i32, i32, i32, i32, i32, [32 x i8], [32 x i8], i8, ptr, i8, ptr, ptr, i8, i8, i8, ptr, ptr, ptr, i64, i64 }
%struct.SockAddr = type { %struct.sockaddr_storage, i32 }
%struct.sockaddr_storage = type { i16, [118 x i8], i64 }
%struct.HbaLine = type { ptr, i32, ptr, i32, ptr, ptr, %struct.sockaddr_storage, i32, %struct.sockaddr_storage, i32, i32, ptr, i32, ptr, ptr, i8, i8, ptr, ptr, i32, ptr, ptr, ptr, ptr, ptr, i32, ptr, ptr, i32, i32, ptr, i8, i8, i8, ptr, ptr, ptr, ptr, ptr, ptr, ptr, ptr }

@.str.1 = private unnamed_addr constant [7 x i8] c"auth.c\00", align 1
@Log_connections = external global i8, align 1
@MyClientConnectionInfo = external global %struct.ClientConnectionInfo, align 8
@.str.34 = private unnamed_addr constant [45 x i8] c"authentication identifier set more than once\00", align 1
@.str.35 = private unnamed_addr constant [48 x i8] c"previous identifier: \22%s\22; new identifier: \22%s\22\00", align 1
@__func__.set_authn_id = private unnamed_addr constant [13 x i8] c"set_authn_id\00", align 1
@TopMemoryContext = external global ptr, align 8
@.str.36 = private unnamed_addr constant [58 x i8] c"connection authenticated: identity=\22%s\22 method=%s (%s:%d)\00", align 1

; Function Attrs: nounwind uwtable
define internal void @set_authn_id(ptr noundef %0, ptr noundef %1) #0 {
  %3 = alloca ptr, align 8
  %4 = alloca ptr, align 8
  store ptr %0, ptr %3, align 8
  store ptr %1, ptr %4, align 8
  %5 = load ptr, ptr @MyClientConnectionInfo, align 8
  %6 = icmp ne ptr %5, null
  br i1 %6, label %7, label %20

7:                                                ; preds = %2
  br label %8

8:                                                ; preds = %7
  br i1 true, label %9, label %11

9:                                                ; preds = %8
  %10 = call zeroext i1 @errstart_cold(i32 noundef 22, ptr noundef null) #15
  br i1 %10, label %13, label %18

11:                                               ; preds = %8
  %12 = call zeroext i1 @errstart(i32 noundef 22, ptr noundef null)
  br i1 %12, label %13, label %18

13:                                               ; preds = %11, %9
  %14 = call i32 (ptr, ...) @errmsg(ptr noundef @.str.34)
  %15 = load ptr, ptr @MyClientConnectionInfo, align 8
  %16 = load ptr, ptr %4, align 8
  %17 = call i32 (ptr, ...) @errdetail_log(ptr noundef @.str.35, ptr noundef %15, ptr noundef %16)
  call void @errfinish(ptr noundef @.str.1, i32 noundef 343, ptr noundef @__func__.set_authn_id)
  br label %18

18:                                               ; preds = %13, %11, %9
  unreachable

19:                                               ; No predecessors!
  br label %20

20:                                               ; preds = %19, %2
  %21 = load ptr, ptr @TopMemoryContext, align 8
  %22 = load ptr, ptr %4, align 8
  %23 = call ptr @MemoryContextStrdup(ptr noundef %21, ptr noundef %22)
  store ptr %23, ptr @MyClientConnectionInfo, align 8
  %24 = load ptr, ptr %3, align 8
  %25 = getelementptr inbounds nuw %struct.Port, ptr %24, i32 0, i32 15
  %26 = load ptr, ptr %25, align 8
  %27 = getelementptr inbounds nuw %struct.HbaLine, ptr %26, i32 0, i32 12
  %28 = load i32, ptr %27, align 8
  store i32 %28, ptr getelementptr inbounds nuw (%struct.ClientConnectionInfo, ptr @MyClientConnectionInfo, i32 0, i32 1), align 8
  %29 = load i8, ptr @Log_connections, align 1, !range !4, !noundef !5
  %30 = trunc i8 %29 to i1
  br i1 %30, label %31, label %54

31:                                               ; preds = %20
  br label %32

32:                                               ; preds = %31
  br i1 false, label %33, label %35

33:                                               ; preds = %32
  %34 = call zeroext i1 @errstart_cold(i32 noundef 15, ptr noundef null) #15
  br i1 %34, label %37, label %52

35:                                               ; preds = %32
  %36 = call zeroext i1 @errstart(i32 noundef 15, ptr noundef null)
  br i1 %36, label %37, label %52

37:                                               ; preds = %35, %33
  %38 = load ptr, ptr @MyClientConnectionInfo, align 8
  %39 = load i32, ptr getelementptr inbounds nuw (%struct.ClientConnectionInfo, ptr @MyClientConnectionInfo, i32 0, i32 1), align 8
  %40 = call ptr @hba_authname(i32 noundef %39)
  %41 = load ptr, ptr %3, align 8
  %42 = getelementptr inbounds nuw %struct.Port, ptr %41, i32 0, i32 15
  %43 = load ptr, ptr %42, align 8
  %44 = getelementptr inbounds nuw %struct.HbaLine, ptr %43, i32 0, i32 0
  %45 = load ptr, ptr %44, align 8
  %46 = load ptr, ptr %3, align 8
  %47 = getelementptr inbounds nuw %struct.Port, ptr %46, i32 0, i32 15
  %48 = load ptr, ptr %47, align 8
  %49 = getelementptr inbounds nuw %struct.HbaLine, ptr %48, i32 0, i32 1
  %50 = load i32, ptr %49, align 8
  %51 = call i32 (ptr, ...) @errmsg(ptr noundef @.str.36, ptr noundef %38, ptr noundef %40, ptr noundef %45, i32 noundef %50)
  call void @errfinish(ptr noundef @.str.1, i32 noundef 356, ptr noundef @__func__.set_authn_id)
  br label %52

52:                                               ; preds = %37, %35, %33
  br label %53

53:                                               ; preds = %52
  br label %54

54:                                               ; preds = %53, %20
  ret void
}