; Function Attrs: nounwind uwtable
define internal fastcc void @set_authn_id(ptr noundef readonly captures(none) %0, ptr noundef %1) unnamed_addr #0 {
  %3 = load ptr, ptr @MyClientConnectionInfo, align 8
  %.not = icmp eq ptr %3, null
  br i1 %.not, label %9, label %4

4:                                                ; preds = %2
  %5 = tail call zeroext i1 @errstart_cold(i32 noundef 22, ptr noundef null) #17
  tail call void @llvm.assume(i1 %5)
  %6 = tail call i32 (ptr, ...) @errmsg(ptr noundef nonnull @.str.34) #16
  %7 = load ptr, ptr @MyClientConnectionInfo, align 8
  %8 = tail call i32 (ptr, ...) @errdetail_log(ptr noundef nonnull @.str.35, ptr noundef %7, ptr noundef %1) #16
  tail call void @errfinish(ptr noundef nonnull @.str.1, i32 noundef 343, ptr noundef nonnull @__func__.set_authn_id) #16
  unreachable

9:                                                ; preds = %2
  %10 = load ptr, ptr @TopMemoryContext, align 8
  %11 = tail call ptr @MemoryContextStrdup(ptr noundef %10, ptr noundef %1) #16
  store ptr %11, ptr @MyClientConnectionInfo, align 8
  %12 = getelementptr inbounds nuw i8, ptr %0, i64 360
  %13 = load ptr, ptr %12, align 8
  %14 = getelementptr inbounds nuw i8, ptr %13, i64 328
  %15 = load i32, ptr %14, align 8
  store i32 %15, ptr getelementptr inbounds nuw (i8, ptr @MyClientConnectionInfo, i64 8), align 8
  %16 = load i8, ptr @Log_connections, align 1, !range !5, !noundef !6
  %17 = trunc nuw i8 %16 to i1
  br i1 %17, label %18, label %29

18:                                               ; preds = %9
  %19 = tail call zeroext i1 @errstart(i32 noundef 15, ptr noundef null) #16
  br i1 %19, label %20, label %29

20:                                               ; preds = %18
  %21 = load ptr, ptr @MyClientConnectionInfo, align 8
  %22 = load i32, ptr getelementptr inbounds nuw (i8, ptr @MyClientConnectionInfo, i64 8), align 8
  %23 = tail call ptr @hba_authname(i32 noundef %22) #16
  %24 = load ptr, ptr %12, align 8
  %25 = load ptr, ptr %24, align 8
  %26 = getelementptr inbounds nuw i8, ptr %24, i64 8
  %27 = load i32, ptr %26, align 8
  %28 = tail call i32 (ptr, ...) @errmsg(ptr noundef nonnull @.str.36, ptr noundef %21, ptr noundef %23, ptr noundef %25, i32 noundef %27) #16
  tail call void @errfinish(ptr noundef nonnull @.str.1, i32 noundef 356, ptr noundef nonnull @__func__.set_authn_id) #16
  br label %29

29:                                               ; preds = %20, %18, %9
  ret void
}